(lp0
(dp1
S'h8'
p2
(lp3
F0.0002777777777777778
aF0.32472222222222225
asS'h2'
p4
(lp5
F0.3038888888888889
aF0.06777777777777778
asS'h3'
p6
(lp7
F0.0
aF0.0
asS'h1'
p8
(lp9
F0.5005555555555555
aF0.0
asS'h6'
p10
(lp11
F0.0
aF0.08055555555555556
asS'h7'
p12
(lp13
F0.0075
aF0.305
asS'h4'
p14
(lp15
F0.0
aF0.0011111111111111111
asS'h5'
p16
(lp17
F0.0
aF0.0
asS'd8'
p18
(lp19
F0.0
aF0.0
asS'a8'
p20
(lp21
F0.0030555555555555557
aF0.2775
asS'd6'
p22
(lp23
F0.0
aF0.0
asS'd7'
p24
(lp25
F0.0
aF0.0
asS'd4'
p26
(lp27
F0.0
aF0.2561111111111111
asS'd5'
p28
(lp29
F0.0030555555555555557
aF0.33361111111111114
asS'd2'
p30
(lp31
F0.29194444444444445
aF0.028333333333333332
asS'd3'
p32
(lp33
F0.001388888888888889
aF0.08972222222222222
asS'd1'
p34
(lp35
F0.4955555555555556
aF0.0
asS'g7'
p36
(lp37
F0.0
aF0.3327777777777778
asS'g6'
p38
(lp39
F0.0008333333333333334
aF0.06027777777777778
asS'g5'
p40
(lp41
F0.0
aF0.0
asS'g4'
p42
(lp43
F0.0
aF0.0
asS'g3'
p44
(lp45
F0.0
aF0.006111111111111111
asS'g2'
p46
(lp47
F0.2822222222222222
aF0.0
asS'g1'
p48
(lp49
F0.18055555555555555
aF0.015277777777777777
asS'g8'
p50
(lp51
F0.004166666666666667
aF0.33305555555555555
asS'c8'
p52
(lp53
F0.0030555555555555557
aF0.2688888888888889
asS'c3'
p54
(lp55
F0.0
aF0.0008333333333333334
asS'c2'
p56
(lp57
F0.25722222222222224
aF0.0
asS'c1'
p58
(lp59
F0.4125
aF0.0275
asS'c7'
p60
(lp61
F0.0
aF0.3236111111111111
asS'c6'
p62
(lp63
F0.0033333333333333335
aF0.035833333333333335
asS'c5'
p64
(lp65
F0.0
aF0.0
asS'c4'
p66
(lp67
F0.0
aF0.0
asS'f1'
p68
(lp69
F0.4577777777777778
aF0.0
asS'f2'
p70
(lp71
F0.5313888888888889
aF0.04055555555555555
asS'f3'
p72
(lp73
F0.2991666666666667
aF0.0
asS'f4'
p74
(lp75
F0.0
aF0.0
asS'f5'
p76
(lp77
F0.0
aF0.0
asS'f6'
p78
(lp79
F0.0
aF0.07694444444444444
asS'f7'
p80
(lp81
F0.006666666666666667
aF0.31166666666666665
asS'f8'
p82
(lp83
F0.0
aF0.2916666666666667
asS'b4'
p84
(lp85
F0.0
aF0.0
asS'b5'
p86
(lp87
F0.0
aF0.0
asS'b6'
p88
(lp89
F0.0
aF0.06916666666666667
asS'b7'
p90
(lp91
F0.0033333333333333335
aF0.24916666666666668
asS'b1'
p92
(lp93
F0.4255555555555556
aF0.0
asS'b2'
p94
(lp95
F0.29888888888888887
aF0.020833333333333332
asS'b3'
p96
(lp97
F0.0
aF0.0002777777777777778
asS'b8'
p98
(lp99
F0.0
aF0.29888888888888887
asS'a1'
p100
(lp101
F0.42
aF0.03111111111111111
asS'a3'
p102
(lp103
F0.0
aF0.001388888888888889
asS'a2'
p104
(lp105
F0.2677777777777778
aF0.0
asS'a5'
p106
(lp107
F0.0
aF0.0
asS'a4'
p108
(lp109
F0.0
aF0.0
asS'a7'
p110
(lp111
F0.0
aF0.355
asS'a6'
p112
(lp113
F0.0033333333333333335
aF0.06888888888888889
asS'e5'
p114
(lp115
F0.0
aF0.22916666666666666
asS'e4'
p116
(lp117
F0.0022222222222222222
aF0.06222222222222222
asS'e7'
p118
(lp119
F0.0002777777777777778
aF0.3308333333333333
asS'e6'
p120
(lp121
F0.0005555555555555556
aF0.0025
asS'e1'
p122
(lp123
F0.46
aF0.095
asS'e3'
p124
(lp125
F0.0
aF0.001388888888888889
asS'e2'
p126
(lp127
F0.0
aF0.0
asS'e8'
p128
(lp129
F0.003611111111111111
aF0.38472222222222224
asa(dp130
g2
(lp131
F0.0002777777777777778
aF0.3186111111111111
asg4
(lp132
F0.27194444444444443
aF0.07722222222222222
asg6
(lp133
F0.0
aF0.0
asg8
(lp134
F0.5163888888888889
aF0.0
asg10
(lp135
F0.0
aF0.07305555555555555
asg12
(lp136
F0.0075
aF0.30527777777777776
asg14
(lp137
F0.0
aF0.0022222222222222222
asg16
(lp138
F0.0
aF0.0
asg18
(lp139
F0.0
aF0.3713888888888889
asg116
(lp140
F0.0030555555555555557
aF0.0675
asg22
(lp141
F0.0
aF0.0038888888888888888
asg24
(lp142
F0.005277777777777778
aF0.305
asg26
(lp143
F0.13583333333333333
aF0.009444444444444445
asg28
(lp144
F0.23972222222222223
aF0.0
asg30
(lp145
F0.2911111111111111
aF0.04638888888888889
asg32
(lp146
F0.0
aF0.0
asg34
(lp147
F0.4697222222222222
aF0.0
asg36
(lp148
F0.0
aF0.28805555555555556
asg38
(lp149
F0.0016666666666666668
aF0.050277777777777775
asg40
(lp150
F0.0
aF0.0
asg42
(lp151
F0.0
aF0.0
asg44
(lp152
F0.0
aF0.021944444444444444
asg46
(lp153
F0.27555555555555555
aF0.0
asg48
(lp154
F0.16694444444444445
aF0.01361111111111111
asg50
(lp155
F0.0038888888888888888
aF0.3005555555555556
asg52
(lp156
F0.0033333333333333335
aF0.2563888888888889
asg54
(lp157
F0.0
aF0.003611111111111111
asg56
(lp158
F0.25583333333333336
aF0.0
asg58
(lp159
F0.4011111111111111
aF0.03222222222222222
asg60
(lp160
F0.0
aF0.36833333333333335
asg62
(lp161
F0.0019444444444444444
aF0.04416666666666667
asg64
(lp162
F0.0
aF0.0
asg66
(lp163
F0.0
aF0.0
asg68
(lp164
F0.4113888888888889
aF0.0
asg70
(lp165
F0.45444444444444443
aF0.03666666666666667
asg72
(lp166
F0.3013888888888889
aF0.0
asg74
(lp167
F0.0
aF0.0044444444444444444
asg76
(lp168
F0.0
aF0.0
asg78
(lp169
F0.0
aF0.08888888888888889
asg80
(lp170
F0.0044444444444444444
aF0.30027777777777775
asg82
(lp171
F0.0
aF0.28444444444444444
asg84
(lp172
F0.0
aF0.0
asg86
(lp173
F0.0
aF0.0
asg88
(lp174
F0.0
aF0.075
asg90
(lp175
F0.002777777777777778
aF0.27194444444444443
asg92
(lp176
F0.4091666666666667
aF0.0
asg94
(lp177
F0.29888888888888887
aF0.059444444444444446
asg96
(lp178
F0.0
aF0.0
asg98
(lp179
F0.0
aF0.32
asg100
(lp180
F0.4488888888888889
aF0.04777777777777778
asg102
(lp181
F0.0
aF0.0011111111111111111
asg104
(lp182
F0.27305555555555555
aF0.0
asg106
(lp183
F0.0
aF0.0008333333333333334
asg108
(lp184
F0.0
aF0.0
asg110
(lp185
F0.0
aF0.37083333333333335
asg112
(lp186
F0.0030555555555555557
aF0.07111111111111111
asg114
(lp187
F0.0
aF0.22666666666666666
asg20
(lp188
F0.004722222222222222
aF0.27555555555555555
asg118
(lp189
F0.0
aF0.3441666666666667
asg120
(lp190
F0.001388888888888889
aF0.006666666666666667
asg122
(lp191
F0.48444444444444446
aF0.0725
asg124
(lp192
F0.0
aF0.005833333333333334
asg126
(lp193
F0.0
aF0.0
asg128
(lp194
F0.005555555555555556
aF0.39861111111111114
asaccopy_reg
_reconstructor
p195
(cChessnut.game
Game
p196
c__builtin__
object
p197
Ntp198
Rp199
(dp200
S'validate'
p201
I01
sS'state'
p202
g195
(cChessnut.game
State
p203
c__builtin__
tuple
p204
(S'b'
p205
S'KQkq'
p206
S'-'
p207
I0
I3
tp208
tp209
Rp210
sS'board'
p211
g195
(cChessnut.board
Board
p212
g197
Ntp213
Rp214
(dp215
S'_position'
p216
(lp217
S'r'
p218
aS'n'
p219
ag205
aS'q'
p220
aS'k'
p221
ag205
ag219
ag218
aS'p'
p222
ag222
ag222
aS' '
p223
ag223
ag222
ag222
ag222
ag223
ag223
ag223
ag223
ag223
ag223
ag223
ag223
ag223
ag223
ag223
aS'P'
p224
ag222
ag223
ag223
ag223
ag223
ag223
ag223
ag223
ag223
ag223
ag223
ag223
ag223
ag223
ag223
ag223
ag223
aS'N'
p225
ag223
ag223
ag224
ag224
ag224
ag224
ag223
ag224
ag224
ag224
aS'R'
p226
ag225
aS'B'
p227
aS'Q'
p228
aS'K'
p229
ag227
ag223
ag226
asbsS'move_history'
p230
(lp231
S'e2e4'
p232
aS'e7e5'
p233
aS'g1f3'
p234
aS'd7d5'
p235
aS'e4d5'
p236
asS'fen_history'
p237
(lp238
S'rnbqkbnr/pppppppp/8/8/8/8/PPPPPPPP/RNBQKBNR w KQkq - 0 1'
p239
aS'rnbqkbnr/pppppppp/8/8/4P3/8/PPPP1PPP/RNBQKBNR b KQkq e3 0 1'
p240
aS'rnbqkbnr/pppp1ppp/8/4p3/4P3/8/PPPP1PPP/RNBQKBNR w KQkq e6 0 2'
p241
aS'rnbqkbnr/pppp1ppp/8/4p3/4P3/5N2/PPPP1PPP/RNBQKB1R b KQkq - 1 2'
p242
aS'rnbqkbnr/ppp2ppp/8/3pp3/4P3/5N2/PPPP1PPP/RNBQKB1R w KQkq d6 0 3'
p243
aS'rnbqkbnr/ppp2ppp/8/3Pp3/8/5N2/PPPP1PPP/RNBQKB1R b KQkq - 0 3'
p244
asba.